target datalayout = "e-m:e-p270:32:32-p271:32:32-p272:64:64-i64:64-i128:128-f80:128-n8:16:32:64-S128"
target triple = "x86_64-pc-linux-gnu"

%struct.string_list = type { ptr, i64, i64, i8, ptr }
%struct.string_list_item = type { ptr, ptr }

@.str.181 = private unnamed_addr constant [25 x i8] c"GIT_TEST_MAINT_SCHEDULER\00", align 1
@.str.182 = private unnamed_addr constant [2 x i8] c",\00", align 1
@.str.183 = private unnamed_addr constant [2 x i8] c":\00", align 1

; Function Attrs: inlinehint nounwind uwtable
define internal ptr @xstrdup_or_null(ptr noundef %0) #6 {
  %2 = alloca ptr, align 8
  store ptr %0, ptr %2, align 8, !tbaa !11
  %3 = load ptr, ptr %2, align 8, !tbaa !11
  %4 = icmp ne ptr %3, null
  br i1 %4, label %5, label %8

5:                                                ; preds = %1
  %6 = load ptr, ptr %2, align 8, !tbaa !11
  %7 = call ptr @xstrdup(ptr noundef %6)
  br label %9

8:                                                ; preds = %1
  br label %9

9:                                                ; preds = %8, %5
  %10 = phi ptr [ %7, %5 ], [ null, %8 ]
  ret ptr %10
}

; Function Attrs: nounwind uwtable
define internal i32 @get_schedule_cmd(ptr noundef %0, ptr noundef %1, ptr noundef %2) #0 {
  %4 = alloca i32, align 4
  %5 = alloca ptr, align 8
  %6 = alloca ptr, align 8
  %7 = alloca ptr, align 8
  %8 = alloca ptr, align 8
  %9 = alloca ptr, align 8
  %10 = alloca %struct.string_list, align 8
  %11 = alloca i32, align 4
  %12 = alloca %struct.string_list, align 8
  store ptr %0, ptr %5, align 8, !tbaa !11
  store ptr %1, ptr %6, align 8, !tbaa !104
  store ptr %2, ptr %7, align 8, !tbaa !8
  call void @llvm.lifetime.start.p0(i64 8, ptr %8) #11
  %13 = call ptr @getenv(ptr noundef @.str.181) #11
  %14 = call ptr @xstrdup_or_null(ptr noundef %13)
  store ptr %14, ptr %8, align 8, !tbaa !11
  call void @llvm.lifetime.start.p0(i64 8, ptr %9) #11
  call void @llvm.lifetime.start.p0(i64 40, ptr %10) #11
  call void @llvm.memset.p0.i64(ptr align 8 %10, i8 0, i64 40, i1 false)
  %15 = load ptr, ptr %8, align 8, !tbaa !11
  %16 = icmp ne ptr %15, null
  br i1 %16, label %25, label %17

17:                                               ; preds = %3
  %18 = load ptr, ptr %7, align 8, !tbaa !8
  %19 = icmp ne ptr %18, null
  br i1 %19, label %20, label %24

20:                                               ; preds = %17
  %21 = load ptr, ptr %5, align 8, !tbaa !11
  %22 = call ptr @xstrdup(ptr noundef %21)
  %23 = load ptr, ptr %7, align 8, !tbaa !8
  store ptr %22, ptr %23, align 8, !tbaa !11
  br label %24

24:                                               ; preds = %20, %17
  store i32 0, ptr %4, align 4
  store i32 1, ptr %11, align 4
  br label %98

25:                                               ; preds = %3
  %26 = load ptr, ptr %6, align 8, !tbaa !104
  %27 = icmp ne ptr %26, null
  br i1 %27, label %28, label %30

28:                                               ; preds = %25
  %29 = load ptr, ptr %6, align 8, !tbaa !104
  store i32 0, ptr %29, align 4, !tbaa !4
  br label %30

30:                                               ; preds = %28, %25
  %31 = load ptr, ptr %8, align 8, !tbaa !11
  %32 = call i32 @string_list_split_in_place(ptr noundef %10, ptr noundef %31, ptr noundef @.str.182, i32 noundef -1)
  %33 = getelementptr inbounds nuw %struct.string_list, ptr %10, i32 0, i32 0
  %34 = load ptr, ptr %33, align 8, !tbaa !117
  store ptr %34, ptr %9, align 8, !tbaa !137
  br label %35

35:                                               ; preds = %85, %30
  %36 = load ptr, ptr %9, align 8, !tbaa !137
  %37 = icmp ne ptr %36, null
  br i1 %37, label %38, label %46

38:                                               ; preds = %35
  %39 = load ptr, ptr %9, align 8, !tbaa !137
  %40 = getelementptr inbounds nuw %struct.string_list, ptr %10, i32 0, i32 0
  %41 = load ptr, ptr %40, align 8, !tbaa !117
  %42 = getelementptr inbounds nuw %struct.string_list, ptr %10, i32 0, i32 1
  %43 = load i64, ptr %42, align 8, !tbaa !55
  %44 = getelementptr inbounds nuw %struct.string_list_item, ptr %41, i64 %43
  %45 = icmp ult ptr %39, %44
  br label %46

46:                                               ; preds = %38, %35
  %47 = phi i1 [ false, %35 ], [ %45, %38 ]
  br i1 %47, label %48, label %88

48:                                               ; preds = %46
  call void @llvm.lifetime.start.p0(i64 40, ptr %12) #11
  call void @llvm.memset.p0.i64(ptr align 8 %12, i8 0, i64 40, i1 false)
  %49 = load ptr, ptr %9, align 8, !tbaa !137
  %50 = getelementptr inbounds nuw %struct.string_list_item, ptr %49, i32 0, i32 0
  %51 = load ptr, ptr %50, align 8, !tbaa !118
  %52 = call i32 @string_list_split_in_place(ptr noundef %12, ptr noundef %51, ptr noundef @.str.183, i32 noundef 2)
  %53 = icmp ne i32 %52, 2
  br i1 %53, label %54, label %55

54:                                               ; preds = %48
  store i32 4, ptr %11, align 4
  br label %82

55:                                               ; preds = %48
  %56 = load ptr, ptr %5, align 8, !tbaa !11
  %57 = getelementptr inbounds nuw %struct.string_list, ptr %12, i32 0, i32 0
  %58 = load ptr, ptr %57, align 8, !tbaa !117
  %59 = getelementptr inbounds %struct.string_list_item, ptr %58, i64 0
  %60 = getelementptr inbounds nuw %struct.string_list_item, ptr %59, i32 0, i32 0
  %61 = load ptr, ptr %60, align 8, !tbaa !118
  %62 = call i32 @strcmp(ptr noundef %56, ptr noundef %61) #13
  %63 = icmp ne i32 %62, 0
  br i1 %63, label %81, label %64

64:                                               ; preds = %55
  %65 = load ptr, ptr %7, align 8, !tbaa !8
  %66 = icmp ne ptr %65, null
  br i1 %66, label %67, label %75

67:                                               ; preds = %64
  %68 = getelementptr inbounds nuw %struct.string_list, ptr %12, i32 0, i32 0
  %69 = load ptr, ptr %68, align 8, !tbaa !117
  %70 = getelementptr inbounds %struct.string_list_item, ptr %69, i64 1
  %71 = getelementptr inbounds nuw %struct.string_list_item, ptr %70, i32 0, i32 0
  %72 = load ptr, ptr %71, align 8, !tbaa !118
  %73 = call ptr @xstrdup(ptr noundef %72)
  %74 = load ptr, ptr %7, align 8, !tbaa !8
  store ptr %73, ptr %74, align 8, !tbaa !11
  br label %75

75:                                               ; preds = %67, %64
  %76 = load ptr, ptr %6, align 8, !tbaa !104
  %77 = icmp ne ptr %76, null
  br i1 %77, label %78, label %80

78:                                               ; preds = %75
  %79 = load ptr, ptr %6, align 8, !tbaa !104
  store i32 1, ptr %79, align 4, !tbaa !4
  br label %80

80:                                               ; preds = %78, %75
  call void @string_list_clear(ptr noundef %12, i32 noundef 0)
  store i32 5, ptr %11, align 4
  br label %82

81:                                               ; preds = %55
  call void @string_list_clear(ptr noundef %12, i32 noundef 0)
  store i32 0, ptr %11, align 4
  br label %82

82:                                               ; preds = %80, %81, %54
  call void @llvm.lifetime.end.p0(i64 40, ptr %12) #11
  %83 = load i32, ptr %11, align 4
  switch i32 %83, label %98 [
    i32 0, label %84
    i32 4, label %85
    i32 5, label %96
  ]

84:                                               ; preds = %82
  br label %85

85:                                               ; preds = %84, %82
  %86 = load ptr, ptr %9, align 8, !tbaa !137
  %87 = getelementptr inbounds nuw %struct.string_list_item, ptr %86, i32 1
  store ptr %87, ptr %9, align 8, !tbaa !137
  br label %35, !llvm.loop !215

88:                                               ; preds = %46
  %89 = load ptr, ptr %7, align 8, !tbaa !8
  %90 = icmp ne ptr %89, null
  br i1 %90, label %91, label %95

91:                                               ; preds = %88
  %92 = load ptr, ptr %5, align 8, !tbaa !11
  %93 = call ptr @xstrdup(ptr noundef %92)
  %94 = load ptr, ptr %7, align 8, !tbaa !8
  store ptr %93, ptr %94, align 8, !tbaa !11
  br label %95

95:                                               ; preds = %91, %88
  br label %96

96:                                               ; preds = %95, %82
  call void @string_list_clear(ptr noundef %10, i32 noundef 0)
  %97 = load ptr, ptr %8, align 8, !tbaa !11
  call void @free(ptr noundef %97) #11
  store i32 1, ptr %4, align 4
  store i32 1, ptr %11, align 4
  br label %98

98:                                               ; preds = %96, %82, %24
  call void @llvm.lifetime.end.p0(i64 40, ptr %10) #11
  call void @llvm.lifetime.end.p0(i64 8, ptr %9) #11
  call void @llvm.lifetime.end.p0(i64 8, ptr %8) #11
  %99 = load i32, ptr %4, align 4
  ret i32 %99
}