; Function Attrs: nounwind uwtable
define internal fastcc range(i32 0, 2) i32 @get_schedule_cmd(ptr noundef %0, ptr noundef writeonly %1, ptr noundef writeonly %2) unnamed_addr #0 {
  %4 = alloca %struct.string_list, align 8
  %5 = alloca %struct.string_list, align 8
  %6 = tail call ptr @getenv(ptr noundef nonnull @.str.181) #21
  %.not.i = icmp eq ptr %6, null
  br i1 %.not.i, label %xstrdup_or_null.exit.thread, label %xstrdup_or_null.exit

xstrdup_or_null.exit.thread:                      ; preds = %3
  call void @llvm.lifetime.start.p0(i64 40, ptr nonnull %4) #21
  br label %8

xstrdup_or_null.exit:                             ; preds = %3
  %7 = tail call ptr @xstrdup(ptr noundef nonnull %6) #21
  call void @llvm.lifetime.start.p0(i64 40, ptr nonnull %4) #21
  call void @llvm.memset.p0.i64(ptr noundef nonnull align 8 dereferenceable(40) %4, i8 0, i64 40, i1 false)
  %.not = icmp eq ptr %7, null
  br i1 %.not, label %8, label %11

8:                                                ; preds = %xstrdup_or_null.exit.thread, %xstrdup_or_null.exit
  %.not27 = icmp eq ptr %2, null
  br i1 %.not27, label %45, label %9

9:                                                ; preds = %8
  %10 = tail call ptr @xstrdup(ptr noundef %0) #21
  store ptr %10, ptr %2, align 8, !tbaa !26
  br label %45

11:                                               ; preds = %xstrdup_or_null.exit
  %.not28 = icmp eq ptr %1, null
  br i1 %.not28, label %13, label %12

12:                                               ; preds = %11
  store i32 0, ptr %1, align 4, !tbaa !4
  br label %13

13:                                               ; preds = %12, %11
  %14 = call i32 @string_list_split_in_place(ptr noundef nonnull %4, ptr noundef nonnull %7, ptr noundef nonnull @.str.182, i32 noundef -1) #21
  %15 = load ptr, ptr %4, align 8, !tbaa !83
  %.not2936 = icmp eq ptr %15, null
  br i1 %.not2936, label %.critedge, label %.lr.ph

.lr.ph:                                           ; preds = %13
  %16 = getelementptr inbounds nuw i8, ptr %4, i64 8
  %17 = load ptr, ptr %4, align 8, !tbaa !83
  %18 = load i64, ptr %16, align 8, !tbaa !62
  %19 = getelementptr inbounds nuw %struct.string_list_item, ptr %17, i64 %18
  %20 = icmp ult ptr %15, %19
  br i1 %20, label %.lr.ph40, label %.critedge

.lr.ph40:                                         ; preds = %.lr.ph, %36
  %.0213739 = phi ptr [ %37, %36 ], [ %15, %.lr.ph ]
  call void @llvm.lifetime.start.p0(i64 40, ptr nonnull %5) #21
  call void @llvm.memset.p0.i64(ptr noundef nonnull align 8 dereferenceable(40) %5, i8 0, i64 40, i1 false)
  %21 = load ptr, ptr %.0213739, align 8, !tbaa !84
  %22 = call i32 @string_list_split_in_place(ptr noundef nonnull %5, ptr noundef %21, ptr noundef nonnull @.str.183, i32 noundef 2) #21
  %.not31 = icmp eq i32 %22, 2
  br i1 %.not31, label %23, label %36

23:                                               ; preds = %.lr.ph40
  %24 = load ptr, ptr %5, align 8, !tbaa !83
  %25 = load ptr, ptr %24, align 8, !tbaa !84
  %26 = call i32 @strcmp(ptr noundef nonnull dereferenceable(1) %0, ptr noundef nonnull dereferenceable(1) %25) #25
  %.not32 = icmp eq i32 %26, 0
  br i1 %.not32, label %27, label %34

27:                                               ; preds = %23
  %.not33 = icmp eq ptr %2, null
  br i1 %.not33, label %32, label %28

28:                                               ; preds = %27
  %29 = getelementptr inbounds nuw i8, ptr %24, i64 16
  %30 = load ptr, ptr %29, align 8, !tbaa !84
  %31 = call ptr @xstrdup(ptr noundef %30) #21
  store ptr %31, ptr %2, align 8, !tbaa !26
  br label %32

32:                                               ; preds = %28, %27
  br i1 %.not28, label %35, label %33

33:                                               ; preds = %32
  store i32 1, ptr %1, align 4, !tbaa !4
  br label %35

34:                                               ; preds = %23
  call void @string_list_clear(ptr noundef nonnull %5, i32 noundef 0) #21
  br label %36

35:                                               ; preds = %32, %33
  call void @string_list_clear(ptr noundef nonnull %5, i32 noundef 0) #21
  call void @llvm.lifetime.end.p0(i64 40, ptr nonnull %5) #21
  br label %44

36:                                               ; preds = %34, %.lr.ph40
  call void @llvm.lifetime.end.p0(i64 40, ptr nonnull %5) #21
  %37 = getelementptr inbounds nuw i8, ptr %.0213739, i64 16
  %38 = load ptr, ptr %4, align 8, !tbaa !83
  %39 = load i64, ptr %16, align 8, !tbaa !62
  %40 = getelementptr inbounds nuw %struct.string_list_item, ptr %38, i64 %39
  %41 = icmp ult ptr %37, %40
  br i1 %41, label %.lr.ph40, label %.critedge

.critedge:                                        ; preds = %36, %.lr.ph, %13
  %.not30 = icmp eq ptr %2, null
  br i1 %.not30, label %44, label %42

42:                                               ; preds = %.critedge
  %43 = call ptr @xstrdup(ptr noundef %0) #21
  store ptr %43, ptr %2, align 8, !tbaa !26
  br label %44

44:                                               ; preds = %35, %.critedge, %42
  call void @string_list_clear(ptr noundef nonnull %4, i32 noundef 0) #21
  call void @free(ptr noundef %7) #21
  br label %45

45:                                               ; preds = %8, %9, %44
  %.022 = phi i32 [ 1, %44 ], [ 0, %9 ], [ 0, %8 ]
  call void @llvm.lifetime.end.p0(i64 40, ptr nonnull %4) #21
  ret i32 %.022
}